target datalayout = "e-m:e-p270:32:32-p271:32:32-p272:64:64-i64:64-i128:128-f80:128-n8:16:32:64-S128"
target triple = "x86_64-pc-linux-gnu"

%struct.LogicalDecodingContext = type { ptr, ptr, ptr, ptr, ptr, i8, %struct.OutputPluginCallbacks, %struct.OutputPluginOptions, ptr, ptr, ptr, ptr, ptr, ptr, ptr, i8, i8, i8, i8, i8, i64, i32, i8, i8 }
%struct.OutputPluginCallbacks = type { ptr, ptr, ptr, ptr, ptr, ptr, ptr, ptr, ptr, ptr, ptr, ptr, ptr, ptr, ptr, ptr, ptr, ptr, ptr, ptr, ptr }
%struct.OutputPluginOptions = type { i32, i8 }
%struct.ReorderBuffer = type { ptr, %struct.dlist_head, %struct.dlist_head, %struct.dclist_head, i32, ptr, ptr, ptr, ptr, ptr, ptr, ptr, ptr, ptr, ptr, ptr, ptr, ptr, ptr, ptr, ptr, ptr, ptr, ptr, ptr, i8, ptr, ptr, ptr, ptr, i64, ptr, i64, i64, ptr, i64, i64, i64, i64, i64, i64, i64, i64 }
%struct.dlist_head = type { %struct.dlist_node }
%struct.dlist_node = type { ptr, ptr }
%struct.dclist_head = type { %struct.dlist_head, i32 }
%struct.LogicalErrorCallbackState = type { ptr, ptr, i64 }
%struct.ErrorContextCallback = type { ptr, ptr, ptr }
%struct.ReorderBufferTXN = type { i32, i32, i32, ptr, i64, i64, i64, ptr, i64, i16, i64, %union.anon, ptr, i64, %struct.dlist_node, ptr, i32, i64, i64, %struct.dlist_head, %struct.dlist_head, i64, ptr, ptr, %struct.dlist_head, i32, i32, ptr, %struct.dlist_node, %struct.dlist_node, %struct.pairingheap_node, i64, i64, ptr }
%union.anon = type { i64 }
%struct.pairingheap_node = type { ptr, ptr, ptr }

@.str.1 = private unnamed_addr constant [10 x i8] c"logical.c\00", align 1
@error_context_stack = external global ptr, align 8
@.str.59 = private unnamed_addr constant [59 x i8] c"logical replication at prepare time requires a %s callback\00", align 1
@.str.63 = private unnamed_addr constant [16 x i8] c"commit_prepared\00", align 1
@.str.64 = private unnamed_addr constant [19 x i8] c"commit_prepared_cb\00", align 1
@__func__.commit_prepared_cb_wrapper = private unnamed_addr constant [27 x i8] c"commit_prepared_cb_wrapper\00", align 1

; Function Attrs: nounwind uwtable
define internal void @commit_prepared_cb_wrapper(ptr noundef %0, ptr noundef %1, i64 noundef %2) #0 {
  %4 = alloca ptr, align 8
  %5 = alloca ptr, align 8
  %6 = alloca i64, align 8
  %7 = alloca ptr, align 8
  %8 = alloca %struct.LogicalErrorCallbackState, align 8
  %9 = alloca %struct.ErrorContextCallback, align 8
  store ptr %0, ptr %4, align 8
  store ptr %1, ptr %5, align 8
  store i64 %2, ptr %6, align 8
  call void @llvm.lifetime.start.p0(i64 8, ptr %7) #10
  %10 = load ptr, ptr %4, align 8
  %11 = getelementptr inbounds nuw %struct.ReorderBuffer, ptr %10, i32 0, i32 24
  %12 = load ptr, ptr %11, align 8
  store ptr %12, ptr %7, align 8
  call void @llvm.lifetime.start.p0(i64 24, ptr %8) #10
  call void @llvm.lifetime.start.p0(i64 24, ptr %9) #10
  %13 = load ptr, ptr %7, align 8
  %14 = getelementptr inbounds nuw %struct.LogicalErrorCallbackState, ptr %8, i32 0, i32 0
  store ptr %13, ptr %14, align 8
  %15 = getelementptr inbounds nuw %struct.LogicalErrorCallbackState, ptr %8, i32 0, i32 1
  store ptr @.str.63, ptr %15, align 8
  %16 = load ptr, ptr %5, align 8
  %17 = getelementptr inbounds nuw %struct.ReorderBufferTXN, ptr %16, i32 0, i32 5
  %18 = load i64, ptr %17, align 8
  %19 = getelementptr inbounds nuw %struct.LogicalErrorCallbackState, ptr %8, i32 0, i32 2
  store i64 %18, ptr %19, align 8
  %20 = getelementptr inbounds nuw %struct.ErrorContextCallback, ptr %9, i32 0, i32 1
  store ptr @output_plugin_error_callback, ptr %20, align 8
  %21 = getelementptr inbounds nuw %struct.ErrorContextCallback, ptr %9, i32 0, i32 2
  store ptr %8, ptr %21, align 8
  %22 = load ptr, ptr @error_context_stack, align 8
  %23 = getelementptr inbounds nuw %struct.ErrorContextCallback, ptr %9, i32 0, i32 0
  store ptr %22, ptr %23, align 8
  store ptr %9, ptr @error_context_stack, align 8
  %24 = load ptr, ptr %7, align 8
  %25 = getelementptr inbounds nuw %struct.LogicalDecodingContext, ptr %24, i32 0, i32 18
  store i8 1, ptr %25, align 1
  %26 = load ptr, ptr %5, align 8
  %27 = getelementptr inbounds nuw %struct.ReorderBufferTXN, ptr %26, i32 0, i32 1
  %28 = load i32, ptr %27, align 4
  %29 = load ptr, ptr %7, align 8
  %30 = getelementptr inbounds nuw %struct.LogicalDecodingContext, ptr %29, i32 0, i32 21
  store i32 %28, ptr %30, align 8
  %31 = load ptr, ptr %5, align 8
  %32 = getelementptr inbounds nuw %struct.ReorderBufferTXN, ptr %31, i32 0, i32 6
  %33 = load i64, ptr %32, align 8
  %34 = load ptr, ptr %7, align 8
  %35 = getelementptr inbounds nuw %struct.LogicalDecodingContext, ptr %34, i32 0, i32 20
  store i64 %33, ptr %35, align 8
  %36 = load ptr, ptr %7, align 8
  %37 = getelementptr inbounds nuw %struct.LogicalDecodingContext, ptr %36, i32 0, i32 22
  store i8 1, ptr %37, align 4
  %38 = load ptr, ptr %7, align 8
  %39 = getelementptr inbounds nuw %struct.LogicalDecodingContext, ptr %38, i32 0, i32 6
  %40 = getelementptr inbounds nuw %struct.OutputPluginCallbacks, ptr %39, i32 0, i32 11
  %41 = load ptr, ptr %40, align 8
  %42 = icmp eq ptr %41, null
  br i1 %42, label %43, label %55

43:                                               ; preds = %3
  br label %44

44:                                               ; preds = %43
  br i1 true, label %45, label %47

45:                                               ; preds = %44
  %46 = call zeroext i1 @errstart_cold(i32 noundef 21, ptr noundef null) #9
  br i1 %46, label %49, label %52

47:                                               ; preds = %44
  %48 = call zeroext i1 @errstart(i32 noundef 21, ptr noundef null)
  br i1 %48, label %49, label %52

49:                                               ; preds = %47, %45
  %50 = call i32 @errcode(i32 noundef 325)
  %51 = call i32 (ptr, ...) @errmsg(ptr noundef @.str.59, ptr noundef @.str.64)
  call void @errfinish(ptr noundef @.str.1, i32 noundef 1027, ptr noundef @__func__.commit_prepared_cb_wrapper)
  br label %52

52:                                               ; preds = %49, %47, %45
  unreachable

53:                                               ; No predecessors!
  br label %54

54:                                               ; preds = %53
  br label %55

55:                                               ; preds = %54, %3
  %56 = load ptr, ptr %7, align 8
  %57 = getelementptr inbounds nuw %struct.LogicalDecodingContext, ptr %56, i32 0, i32 6
  %58 = getelementptr inbounds nuw %struct.OutputPluginCallbacks, ptr %57, i32 0, i32 11
  %59 = load ptr, ptr %58, align 8
  %60 = load ptr, ptr %7, align 8
  %61 = load ptr, ptr %5, align 8
  %62 = load i64, ptr %6, align 8
  call void %59(ptr noundef %60, ptr noundef %61, i64 noundef %62)
  %63 = getelementptr inbounds nuw %struct.ErrorContextCallback, ptr %9, i32 0, i32 0
  %64 = load ptr, ptr %63, align 8
  store ptr %64, ptr @error_context_stack, align 8
  call void @llvm.lifetime.end.p0(i64 24, ptr %9) #10
  call void @llvm.lifetime.end.p0(i64 24, ptr %8) #10
  call void @llvm.lifetime.end.p0(i64 8, ptr %7) #10
  ret void
}